; Function Attrs: mustprogress nofree nounwind willreturn memory(write, argmem: none, inaccessiblemem: readwrite) uwtable
define noalias noundef ptr @Cnf_DataAlloc(ptr noundef %0, i32 noundef %1, i32 noundef %2, i32 noundef %3) local_unnamed_addr #5 {
  %5 = tail call noalias dereferenceable_or_null(72) ptr @calloc(i64 noundef 1, i64 noundef 72) #19
  store ptr %0, ptr %5, align 8, !tbaa !47
  %6 = getelementptr inbounds nuw i8, ptr %5, i64 8
  store i32 %1, ptr %6, align 8, !tbaa !48
  %7 = getelementptr inbounds nuw i8, ptr %5, i64 16
  store i32 %2, ptr %7, align 8, !tbaa !49
  %8 = getelementptr inbounds nuw i8, ptr %5, i64 12
  store i32 %3, ptr %8, align 4, !tbaa !50
  %9 = add nsw i32 %2, 1
  %10 = sext i32 %9 to i64
  %11 = shl nsw i64 %10, 3
  %12 = tail call noalias ptr @malloc(i64 noundef %11) #17
  %13 = getelementptr inbounds nuw i8, ptr %5, i64 24
  store ptr %12, ptr %13, align 8, !tbaa !51
  %14 = sext i32 %3 to i64
  %15 = shl nsw i64 %14, 2
  %16 = tail call noalias ptr @malloc(i64 noundef %15) #17
  store ptr %16, ptr %12, align 8, !tbaa !16
  %17 = getelementptr inbounds i32, ptr %16, i64 %14
  %18 = sext i32 %2 to i64
  %19 = getelementptr inbounds ptr, ptr %12, i64 %18
  store ptr %17, ptr %19, align 8, !tbaa !16
  ret ptr %5
}